; Function Attrs: nounwind uwtable
define internal noundef i32 @arena_i_muzzy_decay_ms_ctl(ptr noundef %tsd, ptr nocapture noundef readonly %mib, i64 %miblen, ptr noundef writeonly %oldp, ptr noundef %oldlenp, ptr noundef readonly %newp, i64 noundef %newlen) #0 {
entry:
  %oldval.i = alloca i64, align 8
  %0 = getelementptr i8, ptr %mib, i64 8
  %mib.val = load i64, ptr %0, align 8
  call void @llvm.lifetime.start.p0(i64 8, ptr nonnull %oldval.i)
  %cmp.i = icmp ugt i64 %mib.val, 4294967295
  br i1 %cmp.i, label %arena_i_decay_ms_ctl_impl.exit, label %if.end.i

if.end.i:                                         ; preds = %entry
  %conv.i = trunc i64 %mib.val to i32
  %arrayidx.i.i = getelementptr inbounds [0 x %struct.atomic_p_t], ptr @arenas, i64 0, i64 %mib.val
  %1 = load atomic i64, ptr %arrayidx.i.i acquire, align 8
  %2 = inttoptr i64 %1 to ptr
  %cmp3.i = icmp eq i64 %1, 0
  br i1 %cmp3.i, label %arena_i_decay_ms_ctl_impl.exit, label %if.end6.i

if.end6.i:                                        ; preds = %if.end.i
  %cmp8.i = icmp ne ptr %oldp, null
  %cmp10.i = icmp ne ptr %oldlenp, null
  %or.cond.i = and i1 %cmp8.i, %cmp10.i
  br i1 %or.cond.i, label %if.then12.i, label %if.end30.i

if.then12.i:                                      ; preds = %if.end6.i
  %call13.i = tail call i64 @arena_decay_ms_get(ptr noundef nonnull %2, i32 noundef 2) #14
  store i64 %call13.i, ptr %oldval.i, align 8
  %3 = load i64, ptr %oldlenp, align 8
  %cmp21.not.i = icmp eq i64 %3, 8
  br i1 %cmp21.not.i, label %if.end27.i, label %if.then23.i

if.then23.i:                                      ; preds = %if.then12.i
  %spec.select.i = tail call i64 @llvm.umin.i64(i64 %3, i64 8)
  call void @llvm.memcpy.p0.p0.i64(ptr nonnull align 1 %oldp, ptr nonnull align 8 %oldval.i, i64 %spec.select.i, i1 false)
  store i64 %spec.select.i, ptr %oldlenp, align 8
  br label %arena_i_decay_ms_ctl_impl.exit

if.end27.i:                                       ; preds = %if.then12.i
  store i64 %call13.i, ptr %oldp, align 8
  br label %if.end30.i

if.end30.i:                                       ; preds = %if.end27.i, %if.end6.i
  %cmp31.not.i = icmp eq ptr %newp, null
  br i1 %cmp31.not.i, label %if.end52.i, label %if.then33.i

if.then33.i:                                      ; preds = %if.end30.i
  %cmp34.not.i = icmp eq i64 %newlen, 8
  br i1 %cmp34.not.i, label %if.end37.i, label %arena_i_decay_ms_ctl_impl.exit

if.end37.i:                                       ; preds = %if.then33.i
  %call38.i = tail call zeroext i1 @arena_is_huge(i32 noundef %conv.i) #14
  %.pre1.i = load i64, ptr %newp, align 8
  %cmp41.i = icmp sgt i64 %.pre1.i, 0
  %or.cond2.i = select i1 %call38.i, i1 %cmp41.i, i1 false
  br i1 %or.cond2.i, label %if.then43.i, label %if.end47.i

if.then43.i:                                      ; preds = %if.end37.i
  %call44.i = tail call zeroext i1 @background_thread_create(ptr noundef %tsd, i32 noundef %conv.i) #14
  br i1 %call44.i, label %arena_i_decay_ms_ctl_impl.exit, label %if.then43.if.end47_crit_edge.i

if.then43.if.end47_crit_edge.i:                   ; preds = %if.then43.i
  %.pre.i = load i64, ptr %newp, align 8
  br label %if.end47.i

if.end47.i:                                       ; preds = %if.then43.if.end47_crit_edge.i, %if.end37.i
  %4 = phi i64 [ %.pre.i, %if.then43.if.end47_crit_edge.i ], [ %.pre1.i, %if.end37.i ]
  %call49.i = tail call zeroext i1 @arena_decay_ms_set(ptr noundef %tsd, ptr noundef nonnull %2, i32 noundef 2, i64 noundef %4) #14
  br i1 %call49.i, label %arena_i_decay_ms_ctl_impl.exit, label %if.end52.i

if.end52.i:                                       ; preds = %if.end47.i, %if.end30.i
  br label %arena_i_decay_ms_ctl_impl.exit

arena_i_decay_ms_ctl_impl.exit:                   ; preds = %entry, %if.end.i, %if.then23.i, %if.then33.i, %if.then43.i, %if.end47.i, %if.end52.i
  %ret.0.i = phi i32 [ 22, %if.then23.i ], [ 0, %if.end52.i ], [ 14, %entry ], [ 14, %if.end.i ], [ 22, %if.then33.i ], [ 14, %if.then43.i ], [ 14, %if.end47.i ]
  call void @llvm.lifetime.end.p0(i64 8, ptr nonnull %oldval.i)
  ret i32 %ret.0.i
}